; ModuleID = '32/642.c'
source_filename = "32/642.c"
target datalayout = "e-m:e-p270:32:32-p271:32:32-p272:64:64-i64:64-f80:128-n8:16:32:64-S128"
target triple = "x86_64-pc-linux-gnu"

@.str = private unnamed_addr constant [3 x i8] c"%d\00", align 1
@.str.1 = private unnamed_addr constant [3 x i8] c"%s\00", align 1
@.str.2 = private unnamed_addr constant [2 x i8] c"\0A\00", align 1

; Function Attrs: noinline nounwind uwtable
define dso_local void @main() #0 {
  %1 = alloca [100 x i8], align 16
  %2 = alloca [100 x i8], align 16
  %3 = alloca i32, align 4
  %4 = alloca i32, align 4
  %5 = alloca i32, align 4
  %6 = alloca i32, align 4
  %7 = alloca i32, align 4
  %8 = alloca [100 x i32], align 16
  %9 = alloca [100 x i32], align 16
  %10 = alloca i32, align 4
  %11 = alloca i32, align 4
  %12 = call i32 (i8*, ...) @__isoc99_scanf(i8* getelementptr inbounds ([3 x i8], [3 x i8]* @.str, i64 0, i64 0), i32* %3)
  store i32 0, i32* %7, align 4
  br label %13

13:                                               ; preds = %178, %0
  %14 = load i32, i32* %7, align 4
  %15 = load i32, i32* %3, align 4
  %16 = sub nsw i32 %15, 1
  %17 = icmp sle i32 %14, %16
  br i1 %17, label %18, label %181

18:                                               ; preds = %13
  %19 = getelementptr inbounds [100 x i8], [100 x i8]* %1, i64 0, i64 0
  %20 = call i32 (i8*, ...) @__isoc99_scanf(i8* getelementptr inbounds ([3 x i8], [3 x i8]* @.str.1, i64 0, i64 0), i8* %19)
  %21 = getelementptr inbounds [100 x i8], [100 x i8]* %2, i64 0, i64 0
  %22 = call i32 (i8*, ...) @__isoc99_scanf(i8* getelementptr inbounds ([3 x i8], [3 x i8]* @.str.1, i64 0, i64 0), i8* %21)
  %23 = getelementptr inbounds [100 x i8], [100 x i8]* %1, i64 0, i64 0
  %24 = call i64 @strlen(i8* %23) #3
  %25 = trunc i64 %24 to i32
  store i32 %25, i32* %10, align 4
  %26 = getelementptr inbounds [100 x i8], [100 x i8]* %2, i64 0, i64 0
  %27 = call i64 @strlen(i8* %26) #3
  %28 = trunc i64 %27 to i32
  store i32 %28, i32* %11, align 4
  store i32 0, i32* %4, align 4
  br label %29

29:                                               ; preds = %47, %18
  %30 = load i32, i32* %4, align 4
  %31 = load i32, i32* %10, align 4
  %32 = sub nsw i32 %31, 1
  %33 = icmp sle i32 %30, %32
  br i1 %33, label %34, label %50

34:                                               ; preds = %29
  %35 = load i32, i32* %10, align 4
  %36 = load i32, i32* %4, align 4
  %37 = sub nsw i32 %35, %36
  %38 = sub nsw i32 %37, 1
  %39 = sext i32 %38 to i64
  %40 = getelementptr inbounds [100 x i8], [100 x i8]* %1, i64 0, i64 %39
  %41 = load i8, i8* %40, align 1
  %42 = sext i8 %41 to i32
  %43 = sub nsw i32 %42, 48
  %44 = load i32, i32* %4, align 4
  %45 = sext i32 %44 to i64
  %46 = getelementptr inbounds [100 x i32], [100 x i32]* %8, i64 0, i64 %45
  store i32 %43, i32* %46, align 4
  br label %47

47:                                               ; preds = %34
  %48 = load i32, i32* %4, align 4
  %49 = add nsw i32 %48, 1
  store i32 %49, i32* %4, align 4
  br label %29

50:                                               ; preds = %29
  store i32 0, i32* %4, align 4
  br label %51

51:                                               ; preds = %69, %50
  %52 = load i32, i32* %4, align 4
  %53 = load i32, i32* %11, align 4
  %54 = sub nsw i32 %53, 1
  %55 = icmp sle i32 %52, %54
  br i1 %55, label %56, label %72

56:                                               ; preds = %51
  %57 = load i32, i32* %11, align 4
  %58 = load i32, i32* %4, align 4
  %59 = sub nsw i32 %57, %58
  %60 = sub nsw i32 %59, 1
  %61 = sext i32 %60 to i64
  %62 = getelementptr inbounds [100 x i8], [100 x i8]* %2, i64 0, i64 %61
  %63 = load i8, i8* %62, align 1
  %64 = sext i8 %63 to i32
  %65 = sub nsw i32 %64, 48
  %66 = load i32, i32* %4, align 4
  %67 = sext i32 %66 to i64
  %68 = getelementptr inbounds [100 x i32], [100 x i32]* %9, i64 0, i64 %67
  store i32 %65, i32* %68, align 4
  br label %69

69:                                               ; preds = %56
  %70 = load i32, i32* %4, align 4
  %71 = add nsw i32 %70, 1
  store i32 %71, i32* %4, align 4
  br label %51

72:                                               ; preds = %51
  %73 = load i32, i32* %11, align 4
  store i32 %73, i32* %5, align 4
  br label %74

74:                                               ; preds = %83, %72
  %75 = load i32, i32* %5, align 4
  %76 = load i32, i32* %10, align 4
  %77 = sub nsw i32 %76, 1
  %78 = icmp sle i32 %75, %77
  br i1 %78, label %79, label %86

79:                                               ; preds = %74
  %80 = load i32, i32* %5, align 4
  %81 = sext i32 %80 to i64
  %82 = getelementptr inbounds [100 x i32], [100 x i32]* %9, i64 0, i64 %81
  store i32 0, i32* %82, align 4
  br label %83

83:                                               ; preds = %79
  %84 = load i32, i32* %5, align 4
  %85 = add nsw i32 %84, 1
  store i32 %85, i32* %5, align 4
  br label %74

86:                                               ; preds = %74
  store i32 0, i32* %4, align 4
  br label %87

87:                                               ; preds = %158, %86
  %88 = load i32, i32* %4, align 4
  %89 = load i32, i32* %10, align 4
  %90 = sub nsw i32 %89, 1
  %91 = icmp sle i32 %88, %90
  br i1 %91, label %92, label %161

92:                                               ; preds = %87
  %93 = load i32, i32* %4, align 4
  %94 = sext i32 %93 to i64
  %95 = getelementptr inbounds [100 x i32], [100 x i32]* %8, i64 0, i64 %94
  %96 = load i32, i32* %95, align 4
  %97 = load i32, i32* %4, align 4
  %98 = sext i32 %97 to i64
  %99 = getelementptr inbounds [100 x i32], [100 x i32]* %9, i64 0, i64 %98
  %100 = load i32, i32* %99, align 4
  %101 = icmp sge i32 %96, %100
  br i1 %101, label %102, label %115

102:                                              ; preds = %92
  %103 = load i32, i32* %4, align 4
  %104 = sext i32 %103 to i64
  %105 = getelementptr inbounds [100 x i32], [100 x i32]* %8, i64 0, i64 %104
  %106 = load i32, i32* %105, align 4
  %107 = load i32, i32* %4, align 4
  %108 = sext i32 %107 to i64
  %109 = getelementptr inbounds [100 x i32], [100 x i32]* %9, i64 0, i64 %108
  %110 = load i32, i32* %109, align 4
  %111 = sub nsw i32 %106, %110
  %112 = load i32, i32* %4, align 4
  %113 = sext i32 %112 to i64
  %114 = getelementptr inbounds [100 x i32], [100 x i32]* %8, i64 0, i64 %113
  store i32 %111, i32* %114, align 4
  br label %157

115:                                              ; preds = %92
  %116 = load i32, i32* %4, align 4
  %117 = sext i32 %116 to i64
  %118 = getelementptr inbounds [100 x i32], [100 x i32]* %8, i64 0, i64 %117
  %119 = load i32, i32* %118, align 4
  %120 = load i32, i32* %4, align 4
  %121 = sext i32 %120 to i64
  %122 = getelementptr inbounds [100 x i32], [100 x i32]* %9, i64 0, i64 %121
  %123 = load i32, i32* %122, align 4
  %124 = icmp slt i32 %119, %123
  br i1 %124, label %125, label %156

125:                                              ; preds = %115
  %126 = load i32, i32* %4, align 4
  %127 = sext i32 %126 to i64
  %128 = getelementptr inbounds [100 x i32], [100 x i32]* %8, i64 0, i64 %127
  %129 = load i32, i32* %128, align 4
  %130 = add nsw i32 %129, 10
  %131 = load i32, i32* %4, align 4
  %132 = sext i32 %131 to i64
  %133 = getelementptr inbounds [100 x i32], [100 x i32]* %8, i64 0, i64 %132
  store i32 %130, i32* %133, align 4
  %134 = load i32, i32* %4, align 4
  %135 = add nsw i32 %134, 1
  %136 = sext i32 %135 to i64
  %137 = getelementptr inbounds [100 x i32], [100 x i32]* %8, i64 0, i64 %136
  %138 = load i32, i32* %137, align 4
  %139 = sub nsw i32 %138, 1
  %140 = load i32, i32* %4, align 4
  %141 = add nsw i32 %140, 1
  %142 = sext i32 %141 to i64
  %143 = getelementptr inbounds [100 x i32], [100 x i32]* %8, i64 0, i64 %142
  store i32 %139, i32* %143, align 4
  %144 = load i32, i32* %4, align 4
  %145 = sext i32 %144 to i64
  %146 = getelementptr inbounds [100 x i32], [100 x i32]* %8, i64 0, i64 %145
  %147 = load i32, i32* %146, align 4
  %148 = load i32, i32* %4, align 4
  %149 = sext i32 %148 to i64
  %150 = getelementptr inbounds [100 x i32], [100 x i32]* %9, i64 0, i64 %149
  %151 = load i32, i32* %150, align 4
  %152 = sub nsw i32 %147, %151
  %153 = load i32, i32* %4, align 4
  %154 = sext i32 %153 to i64
  %155 = getelementptr inbounds [100 x i32], [100 x i32]* %8, i64 0, i64 %154
  store i32 %152, i32* %155, align 4
  br label %156

156:                                              ; preds = %125, %115
  br label %157

157:                                              ; preds = %156, %102
  br label %158

158:                                              ; preds = %157
  %159 = load i32, i32* %4, align 4
  %160 = add nsw i32 %159, 1
  store i32 %160, i32* %4, align 4
  br label %87

161:                                              ; preds = %87
  %162 = load i32, i32* %10, align 4
  %163 = sub nsw i32 %162, 1
  store i32 %163, i32* %6, align 4
  br label %164

164:                                              ; preds = %173, %161
  %165 = load i32, i32* %6, align 4
  %166 = icmp sge i32 %165, 0
  br i1 %166, label %167, label %176

167:                                              ; preds = %164
  %168 = load i32, i32* %6, align 4
  %169 = sext i32 %168 to i64
  %170 = getelementptr inbounds [100 x i32], [100 x i32]* %8, i64 0, i64 %169
  %171 = load i32, i32* %170, align 4
  %172 = call i32 (i8*, ...) @printf(i8* getelementptr inbounds ([3 x i8], [3 x i8]* @.str, i64 0, i64 0), i32 %171)
  br label %173

173:                                              ; preds = %167
  %174 = load i32, i32* %6, align 4
  %175 = add nsw i32 %174, -1
  store i32 %175, i32* %6, align 4
  br label %164

176:                                              ; preds = %164
  %177 = call i32 (i8*, ...) @printf(i8* getelementptr inbounds ([2 x i8], [2 x i8]* @.str.2, i64 0, i64 0))
  br label %178

178:                                              ; preds = %176
  %179 = load i32, i32* %7, align 4
  %180 = add nsw i32 %179, 1
  store i32 %180, i32* %7, align 4
  br label %13

181:                                              ; preds = %13
  ret void
}

declare dso_local i32 @__isoc99_scanf(i8*, ...) #1

; Function Attrs: nounwind readonly
declare dso_local i64 @strlen(i8*) #2

declare dso_local i32 @printf(i8*, ...) #1


!llvm.module.flags = !{!0}
!llvm.ident = !{!1}

!0 = !{i32 1, !"wchar_size", i32 4}
!1 = !{!"clang version 10.0.0-4ubuntu1 "}
